; Function Attrs: nounwind sspstrong uwtable
define dso_local i64 @rb_ary_sort(i64 noundef %0) #4 {
  %2 = inttoptr i64 %0 to ptr
  %3 = load i64, ptr %2, align 8, !tbaa !7
  %4 = and i64 %3, 8192
  %.not.i.i = icmp eq i64 %4, 0
  br i1 %.not.i.i, label %8, label %5

5:                                                ; preds = %1
  %6 = lshr i64 %3, 15
  %7 = and i64 %6, 127
  br label %rb_array_len.exit.i

8:                                                ; preds = %1
  %9 = getelementptr inbounds nuw i8, ptr %2, i64 16
  %10 = load i64, ptr %9, align 8, !tbaa !12
  br label %rb_array_len.exit.i

rb_array_len.exit.i:                              ; preds = %8, %5
  %.0.i.i = phi i64 [ %7, %5 ], [ %10, %8 ]
  %11 = load i64, ptr @rb_cArray, align 8, !tbaa !13
  %12 = tail call fastcc i64 @ary_new(i64 noundef %11, i64 noundef %.0.i.i)
  %13 = load i64, ptr %2, align 8, !tbaa !7
  %14 = and i64 %13, 8192
  %.not.i13.i = icmp eq i64 %14, 0
  br i1 %.not.i13.i, label %17, label %15

15:                                               ; preds = %rb_array_len.exit.i
  %16 = getelementptr inbounds nuw i8, ptr %2, i64 16
  br label %rb_array_const_ptr.exit.i

17:                                               ; preds = %rb_array_len.exit.i
  %18 = getelementptr inbounds nuw i8, ptr %2, i64 32
  %19 = load ptr, ptr %18, align 8, !tbaa !12
  br label %rb_array_const_ptr.exit.i

rb_array_const_ptr.exit.i:                        ; preds = %17, %15
  %.0.i14.i = phi ptr [ %16, %15 ], [ %19, %17 ]
  tail call fastcc void @ary_memcpy0(i64 noundef %12, i64 noundef 0, i64 noundef %.0.i.i, ptr noundef readonly %.0.i14.i, i64 noundef %12)
  %20 = inttoptr i64 %12 to ptr
  %21 = load i64, ptr %20, align 8, !tbaa !7
  %22 = and i64 %21, 8192
  %.not.i = icmp eq i64 %22, 0
  br i1 %.not.i, label %27, label %23

23:                                               ; preds = %rb_array_const_ptr.exit.i
  %24 = and i64 %21, -4161537
  %25 = shl i64 %.0.i.i, 15
  %26 = or i64 %24, %25
  store i64 %26, ptr %20, align 8, !tbaa !7
  br label %rb_ary_dup.exit

27:                                               ; preds = %rb_array_const_ptr.exit.i
  %28 = getelementptr inbounds nuw i8, ptr %20, i64 16
  store i64 %.0.i.i, ptr %28, align 8, !tbaa !12
  br label %rb_ary_dup.exit

rb_ary_dup.exit:                                  ; preds = %23, %27
  %29 = tail call i64 @rb_ary_sort_bang(i64 noundef %12)
  ret i64 %12
}